target datalayout = "e-m:e-p270:32:32-p271:32:32-p272:64:64-i64:64-i128:128-f80:128-n8:16:32:64-S128"
target triple = "x86_64-pc-linux-gnu"

%struct.jv = type { i8, i8, i16, i32, %union.anon }
%union.anon = type { ptr }
%struct.jv_refcnt = type { i32 }
%struct.jvp_invalid = type { %struct.jv_refcnt, %struct.jv }

@JV_REFCNT_INIT = internal constant %struct.jv_refcnt { i32 1 }, align 4

; Function Attrs: nounwind uwtable
define dso_local { i64, ptr } @jv_invalid_with_msg(i64 %0, ptr %1) #0 {
  %3 = alloca %struct.jv, align 8
  %4 = alloca %struct.jv, align 8
  %5 = alloca ptr, align 8
  %6 = getelementptr inbounds nuw { i64, ptr }, ptr %4, i32 0, i32 0
  store i64 %0, ptr %6, align 8
  %7 = getelementptr inbounds nuw { i64, ptr }, ptr %4, i32 0, i32 1
  store ptr %1, ptr %7, align 8
  call void @llvm.lifetime.start.p0(i64 8, ptr %5) #11
  %8 = call ptr @jv_mem_alloc(i64 noundef 24)
  store ptr %8, ptr %5, align 8, !tbaa !14
  %9 = load ptr, ptr %5, align 8, !tbaa !14
  %10 = getelementptr inbounds nuw %struct.jvp_invalid, ptr %9, i32 0, i32 0
  call void @llvm.memcpy.p0.p0.i64(ptr align 8 %10, ptr align 4 @JV_REFCNT_INIT, i64 4, i1 false), !tbaa.struct !16
  %11 = load ptr, ptr %5, align 8, !tbaa !14
  %12 = getelementptr inbounds nuw %struct.jvp_invalid, ptr %11, i32 0, i32 1
  call void @llvm.memcpy.p0.p0.i64(ptr align 8 %12, ptr align 8 %4, i64 16, i1 false), !tbaa.struct !11
  %13 = getelementptr inbounds nuw %struct.jv, ptr %3, i32 0, i32 0
  store i8 -128, ptr %13, align 8, !tbaa !4
  %14 = getelementptr inbounds nuw %struct.jv, ptr %3, i32 0, i32 1
  store i8 0, ptr %14, align 1, !tbaa !17
  %15 = getelementptr inbounds nuw %struct.jv, ptr %3, i32 0, i32 2
  store i16 0, ptr %15, align 2, !tbaa !18
  %16 = getelementptr inbounds nuw %struct.jv, ptr %3, i32 0, i32 3
  store i32 0, ptr %16, align 4, !tbaa !19
  %17 = getelementptr inbounds nuw %struct.jv, ptr %3, i32 0, i32 4
  %18 = load ptr, ptr %5, align 8, !tbaa !14
  %19 = getelementptr inbounds nuw %struct.jvp_invalid, ptr %18, i32 0, i32 0
  store ptr %19, ptr %17, align 8, !tbaa !12
  call void @llvm.lifetime.end.p0(i64 8, ptr %5) #11
  %20 = load { i64, ptr }, ptr %3, align 8
  ret { i64, ptr } %20
}