; Function Attrs: nounwind uwtable
define dso_local { i64, ptr } @jv_invalid_with_msg(i64 %0, ptr %1) local_unnamed_addr #2 {
  %3 = tail call ptr @jv_mem_alloc(i64 noundef 24) #25
  store i32 1, ptr %3, align 8, !tbaa !4
  %4 = getelementptr inbounds nuw i8, ptr %3, i64 8
  store i64 %0, ptr %4, align 8
  %.sroa.2.0..sroa_idx = getelementptr inbounds nuw i8, ptr %3, i64 16
  store ptr %1, ptr %.sroa.2.0..sroa_idx, align 8, !tbaa !8
  %.fca.1.insert = insertvalue { i64, ptr } { i64 128, ptr poison }, ptr %3, 1
  ret { i64, ptr } %.fca.1.insert
}